target datalayout = "e-m:e-p270:32:32-p271:32:32-p272:64:64-i64:64-i128:128-f80:128-n8:16:32:64-S128"
target triple = "x86_64-pc-linux-gnu"

%struct.blf_params = type { ptr, ptr, ptr, i8, i8, ptr }
%struct.wtap_rec = type { i32, i32, i32, %struct.nstime_t, i32, %struct.nstime_t, i8, %union.anon, ptr, i8, %struct.Buffer, %struct.Buffer }
%struct.nstime_t = type { i64, i32 }
%union.anon = type { %struct.wtap_packet_header }
%struct.wtap_packet_header = type { i32, i32, i32, i32, %union.wtap_pseudo_header }
%union.wtap_pseudo_header = type { %struct.erf_mc_phdr }
%struct.erf_mc_phdr = type { %struct.erf_phdr, [16 x %struct.erf_ehdr], %union.anon.1 }
%struct.erf_phdr = type { i64, i8, i8, i16, i16, i16 }
%struct.erf_ehdr = type { i64 }
%union.anon.1 = type { i32 }
%struct.Buffer = type { ptr, i64, i64, i64 }
%struct.blf_wlanframeheader = type { i16, i16, i8, i8, i16, i16, i16, i32 }

@.str.54 = private unnamed_addr constant [66 x i8] c"blf: WLAN_FRAME: not enough bytes for wlan frame header in object\00", align 1
@.str.55 = private unnamed_addr constant [33 x i8] c"blf: WLAN_FRAME: frame too short\00", align 1

; Function Attrs: null_pointer_is_valid sspstrong uwtable
define internal void @blf_add_direction_option(ptr noundef %0, i16 noundef zeroext %1) #2 {
  %3 = alloca ptr, align 8
  %4 = alloca i16, align 2
  %5 = alloca i32, align 4
  store ptr %0, ptr %3, align 8
  store i16 %1, ptr %4, align 2
  call void @llvm.lifetime.start.p0(i64 4, ptr %5) #13
  store i32 0, ptr %5, align 4
  %6 = load i16, ptr %4, align 2
  %7 = zext i16 %6 to i32
  switch i32 %7, label %10 [
    i32 0, label %8
    i32 1, label %9
    i32 2, label %9
  ]

8:                                                ; preds = %2
  store i32 1, ptr %5, align 4
  br label %10

9:                                                ; preds = %2, %2
  store i32 2, ptr %5, align 4
  br label %10

10:                                               ; preds = %2, %9, %8
  %11 = load ptr, ptr %3, align 8
  %12 = getelementptr inbounds nuw %struct.blf_params, ptr %11, i32 0, i32 1
  %13 = load ptr, ptr %12, align 8
  %14 = getelementptr inbounds nuw %struct.wtap_rec, ptr %13, i32 0, i32 8
  %15 = load ptr, ptr %14, align 8
  %16 = load i32, ptr %5, align 4
  %17 = call i32 @wtap_block_add_uint32_option(ptr noundef %15, i32 noundef 2, i32 noundef %16)
  call void @llvm.lifetime.end.p0(i64 4, ptr %5) #13
  ret void
}

; Function Attrs: inlinehint nounwind null_pointer_is_valid sspstrong uwtable
define internal void @ws_buffer_increase_length(ptr noundef %0, i64 noundef %1) #12 {
  %3 = alloca ptr, align 8
  %4 = alloca i64, align 8
  store ptr %0, ptr %3, align 8
  store i64 %1, ptr %4, align 8
  %5 = load i64, ptr %4, align 8
  %6 = load ptr, ptr %3, align 8
  %7 = getelementptr inbounds nuw %struct.Buffer, ptr %6, i32 0, i32 3
  %8 = load i64, ptr %7, align 8
  %9 = add i64 %8, %5
  store i64 %9, ptr %7, align 8
  ret void
}

; Function Attrs: inlinehint nounwind null_pointer_is_valid sspstrong uwtable
define internal ptr @ws_buffer_end_ptr(ptr noundef %0) #12 {
  %2 = alloca ptr, align 8
  store ptr %0, ptr %2, align 8
  %3 = load ptr, ptr %2, align 8
  %4 = getelementptr inbounds nuw %struct.Buffer, ptr %3, i32 0, i32 0
  %5 = load ptr, ptr %4, align 8
  %6 = load ptr, ptr %2, align 8
  %7 = getelementptr inbounds nuw %struct.Buffer, ptr %6, i32 0, i32 3
  %8 = load i64, ptr %7, align 8
  %9 = getelementptr i8, ptr %5, i64 %8
  ret ptr %9
}

; Function Attrs: nounwind null_pointer_is_valid sspstrong uwtable
define internal void @fix_endianness_blf_wlanframeheader(ptr noundef %0) #0 {
  %2 = alloca ptr, align 8
  store ptr %0, ptr %2, align 8
  %3 = load ptr, ptr %2, align 8
  %4 = getelementptr inbounds nuw %struct.blf_wlanframeheader, ptr %3, i32 0, i32 0
  %5 = load i16, ptr %4, align 4
  %6 = load ptr, ptr %2, align 8
  %7 = getelementptr inbounds nuw %struct.blf_wlanframeheader, ptr %6, i32 0, i32 0
  store i16 %5, ptr %7, align 4
  %8 = load ptr, ptr %2, align 8
  %9 = getelementptr inbounds nuw %struct.blf_wlanframeheader, ptr %8, i32 0, i32 1
  %10 = load i16, ptr %9, align 2
  %11 = load ptr, ptr %2, align 8
  %12 = getelementptr inbounds nuw %struct.blf_wlanframeheader, ptr %11, i32 0, i32 1
  store i16 %10, ptr %12, align 2
  %13 = load ptr, ptr %2, align 8
  %14 = getelementptr inbounds nuw %struct.blf_wlanframeheader, ptr %13, i32 0, i32 4
  %15 = load i16, ptr %14, align 2
  %16 = load ptr, ptr %2, align 8
  %17 = getelementptr inbounds nuw %struct.blf_wlanframeheader, ptr %16, i32 0, i32 4
  store i16 %15, ptr %17, align 2
  %18 = load ptr, ptr %2, align 8
  %19 = getelementptr inbounds nuw %struct.blf_wlanframeheader, ptr %18, i32 0, i32 5
  %20 = load i16, ptr %19, align 4
  %21 = load ptr, ptr %2, align 8
  %22 = getelementptr inbounds nuw %struct.blf_wlanframeheader, ptr %21, i32 0, i32 5
  store i16 %20, ptr %22, align 4
  %23 = load ptr, ptr %2, align 8
  %24 = getelementptr inbounds nuw %struct.blf_wlanframeheader, ptr %23, i32 0, i32 6
  %25 = load i16, ptr %24, align 2
  %26 = load ptr, ptr %2, align 8
  %27 = getelementptr inbounds nuw %struct.blf_wlanframeheader, ptr %26, i32 0, i32 6
  store i16 %25, ptr %27, align 2
  ret void
}

; Function Attrs: null_pointer_is_valid sspstrong uwtable
define internal zeroext i1 @blf_read_bytes(ptr noundef %0, i64 noundef %1, ptr noundef %2, i64 noundef %3, ptr noundef %4, ptr noundef %5) #2 {
  %7 = alloca i1, align 1
  %8 = alloca ptr, align 8
  %9 = alloca i64, align 8
  %10 = alloca ptr, align 8
  %11 = alloca i64, align 8
  %12 = alloca ptr, align 8
  %13 = alloca ptr, align 8
  store ptr %0, ptr %8, align 8
  store i64 %1, ptr %9, align 8
  store ptr %2, ptr %10, align 8
  store i64 %3, ptr %11, align 8
  store ptr %4, ptr %12, align 8
  store ptr %5, ptr %13, align 8
  %14 = load ptr, ptr %8, align 8
  %15 = load i64, ptr %9, align 8
  %16 = load ptr, ptr %10, align 8
  %17 = load i64, ptr %11, align 8
  %18 = load ptr, ptr %12, align 8
  %19 = load ptr, ptr %13, align 8
  %20 = call zeroext i1 @blf_read_bytes_or_eof(ptr noundef %14, i64 noundef %15, ptr noundef %16, i64 noundef %17, ptr noundef %18, ptr noundef %19)
  br i1 %20, label %28, label %21

21:                                               ; preds = %6
  %22 = load ptr, ptr %12, align 8
  %23 = load i32, ptr %22, align 4
  %24 = icmp eq i32 %23, 0
  br i1 %24, label %25, label %27

25:                                               ; preds = %21
  %26 = load ptr, ptr %12, align 8
  store i32 -12, ptr %26, align 4
  br label %27

27:                                               ; preds = %25, %21
  store i1 false, ptr %7, align 1
  br label %29

28:                                               ; preds = %6
  store i1 true, ptr %7, align 1
  br label %29

29:                                               ; preds = %28, %27
  %30 = load i1, ptr %7, align 1
  ret i1 %30
}

; Function Attrs: null_pointer_is_valid sspstrong uwtable
define internal zeroext i1 @blf_read_wlanframe(ptr noundef %0, ptr noundef %1, ptr noundef %2, i64 noundef %3, i64 noundef %4, i64 noundef %5, i32 noundef %6, i64 noundef %7) #2 {
  %9 = alloca i1, align 1
  %10 = alloca ptr, align 8
  %11 = alloca ptr, align 8
  %12 = alloca ptr, align 8
  %13 = alloca i64, align 8
  %14 = alloca i64, align 8
  %15 = alloca i64, align 8
  %16 = alloca i32, align 4
  %17 = alloca i64, align 8
  %18 = alloca %struct.blf_wlanframeheader, align 4
  %19 = alloca i32, align 4
  store ptr %0, ptr %10, align 8
  store ptr %1, ptr %11, align 8
  store ptr %2, ptr %12, align 8
  store i64 %3, ptr %13, align 8
  store i64 %4, ptr %14, align 8
  store i64 %5, ptr %15, align 8
  store i32 %6, ptr %16, align 4
  store i64 %7, ptr %17, align 8
  call void @llvm.lifetime.start.p0(i64 16, ptr %18) #13
  %20 = load i64, ptr %15, align 8
  %21 = load i64, ptr %14, align 8
  %22 = load i64, ptr %13, align 8
  %23 = sub i64 %21, %22
  %24 = add i64 %23, 16
  %25 = icmp slt i64 %20, %24
  br i1 %25, label %26, label %33

26:                                               ; preds = %8
  %27 = load ptr, ptr %11, align 8
  store i32 -13, ptr %27, align 4
  %28 = call noalias ptr @wmem_strdup(ptr noundef null, ptr noundef @.str.54)
  %29 = load ptr, ptr %12, align 8
  store ptr %28, ptr %29, align 8
  br label %30

30:                                               ; preds = %26
  br label %31

31:                                               ; preds = %30
  br label %32

32:                                               ; preds = %31
  store i1 false, ptr %9, align 1
  store i32 1, ptr %19, align 4
  br label %110

33:                                               ; preds = %8
  %34 = load ptr, ptr %10, align 8
  %35 = load i64, ptr %14, align 8
  %36 = load ptr, ptr %11, align 8
  %37 = load ptr, ptr %12, align 8
  %38 = call zeroext i1 @blf_read_bytes(ptr noundef %34, i64 noundef %35, ptr noundef %18, i64 noundef 16, ptr noundef %36, ptr noundef %37)
  br i1 %38, label %43, label %39

39:                                               ; preds = %33
  br label %40

40:                                               ; preds = %39
  br label %41

41:                                               ; preds = %40
  br label %42

42:                                               ; preds = %41
  store i1 false, ptr %9, align 1
  store i32 1, ptr %19, align 4
  br label %110

43:                                               ; preds = %33
  call void @fix_endianness_blf_wlanframeheader(ptr noundef %18)
  %44 = load i64, ptr %15, align 8
  %45 = load i64, ptr %14, align 8
  %46 = load i64, ptr %13, align 8
  %47 = sub i64 %45, %46
  %48 = sub i64 %44, %47
  %49 = sub i64 %48, 16
  %50 = getelementptr inbounds nuw %struct.blf_wlanframeheader, ptr %18, i32 0, i32 6
  %51 = load i16, ptr %50, align 2
  %52 = zext i16 %51 to i64
  %53 = icmp ult i64 %49, %52
  br i1 %53, label %54, label %61

54:                                               ; preds = %43
  %55 = load ptr, ptr %11, align 8
  store i32 -13, ptr %55, align 4
  %56 = call noalias ptr @wmem_strdup(ptr noundef null, ptr noundef @.str.55)
  %57 = load ptr, ptr %12, align 8
  store ptr %56, ptr %57, align 8
  br label %58

58:                                               ; preds = %54
  br label %59

59:                                               ; preds = %58
  br label %60

60:                                               ; preds = %59
  store i1 false, ptr %9, align 1
  store i32 1, ptr %19, align 4
  br label %110

61:                                               ; preds = %43
  %62 = load ptr, ptr %10, align 8
  %63 = getelementptr inbounds nuw %struct.blf_params, ptr %62, i32 0, i32 1
  %64 = load ptr, ptr %63, align 8
  %65 = getelementptr inbounds nuw %struct.wtap_rec, ptr %64, i32 0, i32 11
  %66 = getelementptr inbounds nuw %struct.blf_wlanframeheader, ptr %18, i32 0, i32 6
  %67 = load i16, ptr %66, align 2
  %68 = zext i16 %67 to i64
  call void @ws_buffer_assure_space(ptr noundef %65, i64 noundef %68)
  %69 = load ptr, ptr %10, align 8
  %70 = load i64, ptr %14, align 8
  %71 = add i64 %70, 16
  %72 = load ptr, ptr %10, align 8
  %73 = getelementptr inbounds nuw %struct.blf_params, ptr %72, i32 0, i32 1
  %74 = load ptr, ptr %73, align 8
  %75 = getelementptr inbounds nuw %struct.wtap_rec, ptr %74, i32 0, i32 11
  %76 = call ptr @ws_buffer_end_ptr(ptr noundef %75)
  %77 = getelementptr inbounds nuw %struct.blf_wlanframeheader, ptr %18, i32 0, i32 6
  %78 = load i16, ptr %77, align 2
  %79 = zext i16 %78 to i64
  %80 = load ptr, ptr %11, align 8
  %81 = load ptr, ptr %12, align 8
  %82 = call zeroext i1 @blf_read_bytes(ptr noundef %69, i64 noundef %71, ptr noundef %76, i64 noundef %79, ptr noundef %80, ptr noundef %81)
  br i1 %82, label %87, label %83

83:                                               ; preds = %61
  br label %84

84:                                               ; preds = %83
  br label %85

85:                                               ; preds = %84
  br label %86

86:                                               ; preds = %85
  store i1 false, ptr %9, align 1
  store i32 1, ptr %19, align 4
  br label %110

87:                                               ; preds = %61
  %88 = load ptr, ptr %10, align 8
  %89 = getelementptr inbounds nuw %struct.blf_params, ptr %88, i32 0, i32 1
  %90 = load ptr, ptr %89, align 8
  %91 = getelementptr inbounds nuw %struct.wtap_rec, ptr %90, i32 0, i32 11
  %92 = getelementptr inbounds nuw %struct.blf_wlanframeheader, ptr %18, i32 0, i32 6
  %93 = load i16, ptr %92, align 2
  %94 = zext i16 %93 to i64
  call void @ws_buffer_increase_length(ptr noundef %91, i64 noundef %94)
  %95 = load ptr, ptr %10, align 8
  %96 = load i32, ptr %16, align 4
  %97 = load i64, ptr %17, align 8
  %98 = getelementptr inbounds nuw %struct.blf_wlanframeheader, ptr %18, i32 0, i32 0
  %99 = load i16, ptr %98, align 4
  %100 = getelementptr inbounds nuw %struct.blf_wlanframeheader, ptr %18, i32 0, i32 6
  %101 = load i16, ptr %100, align 2
  %102 = zext i16 %101 to i32
  %103 = getelementptr inbounds nuw %struct.blf_wlanframeheader, ptr %18, i32 0, i32 6
  %104 = load i16, ptr %103, align 2
  %105 = zext i16 %104 to i32
  call void @blf_init_rec(ptr noundef %95, i32 noundef %96, i64 noundef %97, i32 noundef 20, i16 noundef zeroext %99, i16 noundef zeroext -1, i32 noundef %102, i32 noundef %105)
  %106 = load ptr, ptr %10, align 8
  %107 = getelementptr inbounds nuw %struct.blf_wlanframeheader, ptr %18, i32 0, i32 2
  %108 = load i8, ptr %107, align 4
  %109 = zext i8 %108 to i16
  call void @blf_add_direction_option(ptr noundef %106, i16 noundef zeroext %109)
  store i1 true, ptr %9, align 1
  store i32 1, ptr %19, align 4
  br label %110

110:                                              ; preds = %87, %86, %60, %42, %32
  call void @llvm.lifetime.end.p0(i64 16, ptr %18) #13
  %111 = load i1, ptr %9, align 1
  ret i1 %111
}